target datalayout = "e-m:e-p270:32:32-p271:32:32-p272:64:64-i64:64-i128:128-f80:128-n8:16:32:64-S128"
target triple = "x86_64-pc-linux-gnu"

%struct.expert_field = type { i32, i32 }

@ei_amqp_unknown_amqp_type = internal global %struct.expert_field zeroinitializer, align 4
@.str.1580 = private unnamed_addr constant [59 x i8] c"Unexpected integer at frame position %d to list field \22%s\22\00", align 1

; Function Attrs: null_pointer_is_valid sspstrong uwtable
define internal i32 @dissect_amqp_1_0_zero(ptr noundef %0, ptr noundef %1, i32 noundef %2, i32 noundef %3, ptr noundef %4, i32 noundef %5) #0 {
  %7 = alloca ptr, align 8
  %8 = alloca ptr, align 8
  %9 = alloca i32, align 4
  %10 = alloca i32, align 4
  %11 = alloca ptr, align 8
  %12 = alloca i32, align 4
  store ptr %0, ptr %7, align 8
  store ptr %1, ptr %8, align 8
  store i32 %2, ptr %9, align 4
  store i32 %3, ptr %10, align 4
  store ptr %4, ptr %11, align 8
  store i32 %5, ptr %12, align 4
  %13 = load i32, ptr %12, align 4
  %14 = call i32 @proto_registrar_get_ftype(i32 noundef %13)
  switch i32 %14, label %43 [
    i32 4, label %15
    i32 5, label %15
    i32 6, label %15
    i32 7, label %15
    i32 8, label %22
    i32 9, label %22
    i32 10, label %22
    i32 11, label %22
    i32 12, label %29
    i32 13, label %29
    i32 14, label %29
    i32 15, label %29
    i32 16, label %36
    i32 17, label %36
    i32 18, label %36
    i32 19, label %36
  ]

15:                                               ; preds = %6, %6, %6, %6
  %16 = load ptr, ptr %11, align 8
  %17 = load i32, ptr %12, align 4
  %18 = load ptr, ptr %7, align 8
  %19 = load i32, ptr %9, align 4
  %20 = sub i32 %19, 1
  %21 = call ptr @proto_tree_add_uint(ptr noundef %16, i32 noundef %17, ptr noundef %18, i32 noundef %20, i32 noundef 1, i32 noundef 0)
  br label %50

22:                                               ; preds = %6, %6, %6, %6
  %23 = load ptr, ptr %11, align 8
  %24 = load i32, ptr %12, align 4
  %25 = load ptr, ptr %7, align 8
  %26 = load i32, ptr %9, align 4
  %27 = sub i32 %26, 1
  %28 = call ptr @proto_tree_add_uint64(ptr noundef %23, i32 noundef %24, ptr noundef %25, i32 noundef %27, i32 noundef 1, i64 noundef 0)
  br label %50

29:                                               ; preds = %6, %6, %6, %6
  %30 = load ptr, ptr %11, align 8
  %31 = load i32, ptr %12, align 4
  %32 = load ptr, ptr %7, align 8
  %33 = load i32, ptr %9, align 4
  %34 = sub i32 %33, 1
  %35 = call ptr @proto_tree_add_int(ptr noundef %30, i32 noundef %31, ptr noundef %32, i32 noundef %34, i32 noundef 1, i32 noundef 0)
  br label %50

36:                                               ; preds = %6, %6, %6, %6
  %37 = load ptr, ptr %11, align 8
  %38 = load i32, ptr %12, align 4
  %39 = load ptr, ptr %7, align 8
  %40 = load i32, ptr %9, align 4
  %41 = sub i32 %40, 1
  %42 = call ptr @proto_tree_add_int64(ptr noundef %37, i32 noundef %38, ptr noundef %39, i32 noundef %41, i32 noundef 1, i64 noundef 0)
  br label %50

43:                                               ; preds = %6
  %44 = load ptr, ptr %8, align 8
  %45 = load ptr, ptr %11, align 8
  %46 = load i32, ptr %9, align 4
  %47 = load i32, ptr %12, align 4
  %48 = call ptr @proto_registrar_get_name(i32 noundef %47)
  %49 = call ptr (ptr, ptr, ptr, ptr, ...) @expert_add_info_format(ptr noundef %44, ptr noundef %45, ptr noundef @ei_amqp_unknown_amqp_type, ptr noundef @.str.1580, i32 noundef %46, ptr noundef %48)
  br label %50

50:                                               ; preds = %43, %36, %29, %22, %15
  ret i32 0
}