; Function Attrs: null_pointer_is_valid sspstrong uwtable
define internal noundef i32 @dissect_amqp_1_0_zero(ptr noundef %0, ptr noundef %1, i32 noundef %2, i32 %3, ptr noundef %4, i32 noundef %5) #0 {
  %7 = tail call i32 @proto_registrar_get_ftype(i32 noundef %5)
  switch i32 %7, label %20 [
    i32 4, label %8
    i32 5, label %8
    i32 6, label %8
    i32 7, label %8
    i32 8, label %11
    i32 9, label %11
    i32 10, label %11
    i32 11, label %11
    i32 12, label %14
    i32 13, label %14
    i32 14, label %14
    i32 15, label %14
    i32 16, label %17
    i32 17, label %17
    i32 18, label %17
    i32 19, label %17
  ]

8:                                                ; preds = %6, %6, %6, %6
  %9 = add i32 %2, -1
  %10 = tail call ptr @proto_tree_add_uint(ptr noundef %4, i32 noundef %5, ptr noundef %0, i32 noundef %9, i32 noundef 1, i32 noundef 0)
  br label %23

11:                                               ; preds = %6, %6, %6, %6
  %12 = add i32 %2, -1
  %13 = tail call ptr @proto_tree_add_uint64(ptr noundef %4, i32 noundef %5, ptr noundef %0, i32 noundef %12, i32 noundef 1, i64 noundef 0)
  br label %23

14:                                               ; preds = %6, %6, %6, %6
  %15 = add i32 %2, -1
  %16 = tail call ptr @proto_tree_add_int(ptr noundef %4, i32 noundef %5, ptr noundef %0, i32 noundef %15, i32 noundef 1, i32 noundef 0)
  br label %23

17:                                               ; preds = %6, %6, %6, %6
  %18 = add i32 %2, -1
  %19 = tail call ptr @proto_tree_add_int64(ptr noundef %4, i32 noundef %5, ptr noundef %0, i32 noundef %18, i32 noundef 1, i64 noundef 0)
  br label %23

20:                                               ; preds = %6
  %21 = tail call ptr @proto_registrar_get_name(i32 noundef %5)
  %22 = tail call ptr (ptr, ptr, ptr, ptr, ...) @expert_add_info_format(ptr noundef %1, ptr noundef %4, ptr noundef nonnull @ei_amqp_unknown_amqp_type, ptr noundef nonnull @.str.1580, i32 noundef %2, ptr noundef %21)
  br label %23

23:                                               ; preds = %20, %17, %14, %11, %8
  ret i32 0
}